; Function Attrs: null_pointer_is_valid sspstrong uwtable
define internal i32 @dissect_acdr_tpncp_by_tracepoint(ptr noundef %0, ptr noundef %1, ptr noundef %2, ptr noundef readonly captures(address_is_null) %3) #0 {
  %5 = icmp eq ptr %3, null
  br i1 %5, label %13, label %6

6:                                                ; preds = %4
  %7 = getelementptr inbounds nuw i8, ptr %1, i64 284
  %8 = load i32, ptr %7, align 4
  %9 = getelementptr inbounds nuw i8, ptr %3, i64 10
  %10 = load i8, ptr %9, align 2
  %11 = icmp eq i8 %10, 5
  %. = select i1 %11, i32 2424, i32 2425
  store i32 %., ptr %7, align 4
  %12 = tail call i32 @dissect_tpncp(ptr noundef %0, ptr noundef %1, ptr noundef %2, ptr poison)
  store i32 %8, ptr %7, align 4
  br label %13

13:                                               ; preds = %4, %6
  %.0 = phi i32 [ %12, %6 ], [ 0, %4 ]
  ret i32 %.0
}